target datalayout = "e-m:e-p270:32:32-p271:32:32-p272:64:64-i64:64-i128:128-f80:128-n8:16:32:64-S128"
target triple = "x86_64-pc-linux-gnu"

%"class.std::__cxx11::basic_string" = type { %"struct.std::__cxx11::basic_string<char>::_Alloc_hider", i64, %union.anon }
%"struct.std::__cxx11::basic_string<char>::_Alloc_hider" = type { ptr }
%union.anon = type { i64, [8 x i8] }
%"class.std::allocator" = type { i8 }

@_ZTIN6opencc13InvalidFormatE = linkonce_odr constant { ptr, ptr, ptr } { ptr getelementptr inbounds (ptr, ptr @_ZTVN10__cxxabiv120__si_class_type_infoE, i64 2), ptr @_ZTSN6opencc13InvalidFormatE, ptr @_ZTIN6opencc9ExceptionE }, comdat, align 8
@.str.10 = private unnamed_addr constant [32 x i8] c"Cannot write binary dictionary.\00", align 1

; Function Attrs: mustprogress uwtable
define internal void @_ZN12_GLOBAL__N_112WriteIntegerItEEvP8_IO_FILET_(ptr noundef %0, i16 noundef zeroext %1) #5 personality ptr @__gxx_personality_v0 {
  %3 = alloca ptr, align 8
  %4 = alloca i16, align 2
  %5 = alloca i64, align 8
  %6 = alloca %"class.std::__cxx11::basic_string", align 8
  %7 = alloca %"class.std::allocator", align 1
  %8 = alloca ptr, align 8
  %9 = alloca i32, align 4
  %10 = alloca i1, align 1
  store ptr %0, ptr %3, align 8
  store i16 %1, ptr %4, align 2
  %11 = load ptr, ptr %3, align 8
  %12 = call i64 @fwrite(ptr noundef %4, i64 noundef 2, i64 noundef 1, ptr noundef %11)
  store i64 %12, ptr %5, align 8
  %13 = load i64, ptr %5, align 8
  %14 = icmp ne i64 %13, 1
  br i1 %14, label %15, label %31

15:                                               ; preds = %2
  store i1 true, ptr %10, align 1
  %16 = call ptr @__cxa_allocate_exception(i64 40) #3
  call void @_ZNSaIcEC1Ev(ptr noundef nonnull align 1 dereferenceable(1) %7) #3
  invoke void @_ZNSt7__cxx1112basic_stringIcSt11char_traitsIcESaIcEEC1EPKcRKS3_(ptr noundef nonnull align 8 dereferenceable(32) %6, ptr noundef @.str.10, ptr noundef nonnull align 1 dereferenceable(1) %7)
          to label %17 unwind label %19

17:                                               ; preds = %15
  invoke void @_ZN6opencc13InvalidFormatC2ERKNSt7__cxx1112basic_stringIcSt11char_traitsIcESaIcEEE(ptr noundef nonnull align 8 dereferenceable(40) %16, ptr noundef nonnull align 8 dereferenceable(32) %6)
          to label %18 unwind label %23

18:                                               ; preds = %17
  store i1 false, ptr %10, align 1
  invoke void @__cxa_throw(ptr %16, ptr @_ZTIN6opencc13InvalidFormatE, ptr @_ZN6opencc13InvalidFormatD2Ev) #13
          to label %37 unwind label %23

19:                                               ; preds = %15
  %20 = landingpad { ptr, i32 }
          cleanup
  %21 = extractvalue { ptr, i32 } %20, 0
  store ptr %21, ptr %8, align 8
  %22 = extractvalue { ptr, i32 } %20, 1
  store i32 %22, ptr %9, align 4
  br label %27

23:                                               ; preds = %18, %17
  %24 = landingpad { ptr, i32 }
          cleanup
  %25 = extractvalue { ptr, i32 } %24, 0
  store ptr %25, ptr %8, align 8
  %26 = extractvalue { ptr, i32 } %24, 1
  store i32 %26, ptr %9, align 4
  call void @_ZNSt7__cxx1112basic_stringIcSt11char_traitsIcESaIcEED1Ev(ptr noundef nonnull align 8 dereferenceable(32) %6) #3
  br label %27

27:                                               ; preds = %23, %19
  call void @_ZNSaIcED1Ev(ptr noundef nonnull align 1 dereferenceable(1) %7) #3
  %28 = load i1, ptr %10, align 1
  br i1 %28, label %29, label %30

29:                                               ; preds = %27
  call void @__cxa_free_exception(ptr %16) #3
  br label %30

30:                                               ; preds = %29, %27
  br label %32

31:                                               ; preds = %2
  ret void

32:                                               ; preds = %30
  %33 = load ptr, ptr %8, align 8
  %34 = load i32, ptr %9, align 4
  %35 = insertvalue { ptr, i32 } poison, ptr %33, 0
  %36 = insertvalue { ptr, i32 } %35, i32 %34, 1
  resume { ptr, i32 } %36

37:                                               ; preds = %18
  unreachable
}